(dp0
I1
(dp1
S'delay'
p2
I36
sS'i_gain'
p3
F7356.6331710167005
sS'v_offset'
p4
I2728
sS'i_offset'
p5
I1347
sS'v_gain'
p6
F5613.610461672501
ssI2
(dp7
g2
I36
sg3
I1
sg4
I1351
sg5
I190
sg6
I1
ssI3
(dp8
S'delay'
p9
I36
sS'i_gain'
p10
I1
sS'v_offset'
p11
I1352
sS'i_offset'
p12
I2732
sS'v_gain'
p13
I1
ssI4
(dp14
g9
I304
sg10
I1
sg11
I1344
sg12
I1349
sg13
I1
ssI5
(dp15
S'delay'
p16
I16
sS'i_gain'
p17
F14481.546878700492
sS'v_offset'
p18
I1333
sS'i_offset'
p19
I1350
sS'v_gain'
p20
F5613.501538840345
ssI6
(dp21
g16
I396
sg17
I1
sg18
I1333
sg19
I1349
sg20
I1
ss.